target datalayout = "e-m:e-p270:32:32-p271:32:32-p272:64:64-i64:64-i128:128-f80:128-n8:16:32:64-S128"
target triple = "x86_64-pc-linux-gnu"

%struct.redisObject = type { i32, i32, ptr }
%struct.sdshdr8 = type { i8, i8, i8, [0 x i8] }
%struct.sdshdr16 = type <{ i16, i16, i8, [0 x i8] }>
%struct.sdshdr32 = type <{ i32, i32, i8, [0 x i8] }>
%struct.sdshdr64 = type <{ i64, i64, i8, [0 x i8] }>
%struct.setTypeIterator = type { ptr, i32, i32, ptr, ptr }

@.str.1 = private unnamed_addr constant [8 x i8] c"t_set.c\00", align 1
@.str.4 = private unnamed_addr constant [34 x i8] c"Wrong set encoding in setTypeNext\00", align 1

; Function Attrs: inlinehint nounwind uwtable
define internal i64 @sdslen(ptr noundef %0) #3 {
  %2 = alloca i64, align 8
  %3 = alloca ptr, align 8
  %4 = alloca i8, align 1
  %5 = alloca i32, align 4
  store ptr %0, ptr %3, align 8, !tbaa !5
  call void @llvm.lifetime.start.p0(i64 1, ptr %4) #10
  %6 = load ptr, ptr %3, align 8, !tbaa !5
  %7 = getelementptr inbounds i8, ptr %6, i64 -1
  %8 = load i8, ptr %7, align 1, !tbaa !51
  store i8 %8, ptr %4, align 1, !tbaa !51
  %9 = load i8, ptr %4, align 1, !tbaa !51
  %10 = zext i8 %9 to i32
  %11 = and i32 %10, 7
  switch i32 %11, label %40 [
    i32 0, label %12
    i32 1, label %17
    i32 2, label %23
    i32 3, label %29
    i32 4, label %35
  ]

12:                                               ; preds = %1
  %13 = load i8, ptr %4, align 1, !tbaa !51
  %14 = zext i8 %13 to i32
  %15 = ashr i32 %14, 3
  %16 = sext i32 %15 to i64
  store i64 %16, ptr %2, align 8
  store i32 1, ptr %5, align 4
  br label %41

17:                                               ; preds = %1
  %18 = load ptr, ptr %3, align 8, !tbaa !5
  %19 = getelementptr inbounds i8, ptr %18, i64 -3
  %20 = getelementptr inbounds nuw %struct.sdshdr8, ptr %19, i32 0, i32 0
  %21 = load i8, ptr %20, align 1, !tbaa !51
  %22 = zext i8 %21 to i64
  store i64 %22, ptr %2, align 8
  store i32 1, ptr %5, align 4
  br label %41

23:                                               ; preds = %1
  %24 = load ptr, ptr %3, align 8, !tbaa !5
  %25 = getelementptr inbounds i8, ptr %24, i64 -5
  %26 = getelementptr inbounds nuw %struct.sdshdr16, ptr %25, i32 0, i32 0
  %27 = load i16, ptr %26, align 1, !tbaa !54
  %28 = zext i16 %27 to i64
  store i64 %28, ptr %2, align 8
  store i32 1, ptr %5, align 4
  br label %41

29:                                               ; preds = %1
  %30 = load ptr, ptr %3, align 8, !tbaa !5
  %31 = getelementptr inbounds i8, ptr %30, i64 -9
  %32 = getelementptr inbounds nuw %struct.sdshdr32, ptr %31, i32 0, i32 0
  %33 = load i32, ptr %32, align 1, !tbaa !45
  %34 = zext i32 %33 to i64
  store i64 %34, ptr %2, align 8
  store i32 1, ptr %5, align 4
  br label %41

35:                                               ; preds = %1
  %36 = load ptr, ptr %3, align 8, !tbaa !5
  %37 = getelementptr inbounds i8, ptr %36, i64 -17
  %38 = getelementptr inbounds nuw %struct.sdshdr64, ptr %37, i32 0, i32 0
  %39 = load i64, ptr %38, align 1, !tbaa !10
  store i64 %39, ptr %2, align 8
  store i32 1, ptr %5, align 4
  br label %41

40:                                               ; preds = %1
  store i64 0, ptr %2, align 8
  store i32 1, ptr %5, align 4
  br label %41

41:                                               ; preds = %40, %35, %29, %23, %17, %12
  call void @llvm.lifetime.end.p0(i64 1, ptr %4) #10
  %42 = load i64, ptr %2, align 8
  ret i64 %42
}

; Function Attrs: nounwind uwtable
define dso_local i32 @setTypeNext(ptr noundef %0, ptr noundef %1, ptr noundef %2, ptr noundef %3) #0 {
  %5 = alloca i32, align 4
  %6 = alloca ptr, align 8
  %7 = alloca ptr, align 8
  %8 = alloca ptr, align 8
  %9 = alloca ptr, align 8
  %10 = alloca ptr, align 8
  %11 = alloca i32, align 4
  %12 = alloca ptr, align 8
  %13 = alloca ptr, align 8
  %14 = alloca i32, align 4
  store ptr %0, ptr %6, align 8, !tbaa !47
  store ptr %1, ptr %7, align 8, !tbaa !63
  store ptr %2, ptr %8, align 8, !tbaa !64
  store ptr %3, ptr %9, align 8, !tbaa !64
  %15 = load ptr, ptr %6, align 8, !tbaa !47
  %16 = getelementptr inbounds nuw %struct.setTypeIterator, ptr %15, i32 0, i32 1
  %17 = load i32, ptr %16, align 8, !tbaa !59
  %18 = icmp eq i32 %17, 2
  br i1 %18, label %19, label %39

19:                                               ; preds = %4
  call void @llvm.lifetime.start.p0(i64 8, ptr %10) #10
  %20 = load ptr, ptr %6, align 8, !tbaa !47
  %21 = getelementptr inbounds nuw %struct.setTypeIterator, ptr %20, i32 0, i32 3
  %22 = load ptr, ptr %21, align 8, !tbaa !60
  %23 = call ptr @dictNext(ptr noundef %22)
  store ptr %23, ptr %10, align 8, !tbaa !66
  %24 = load ptr, ptr %10, align 8, !tbaa !66
  %25 = icmp eq ptr %24, null
  br i1 %25, label %26, label %27

26:                                               ; preds = %19
  store i32 -1, ptr %5, align 4
  store i32 1, ptr %11, align 4
  br label %36

27:                                               ; preds = %19
  %28 = load ptr, ptr %10, align 8, !tbaa !66
  %29 = call ptr @dictGetKey(ptr noundef %28)
  %30 = load ptr, ptr %7, align 8, !tbaa !63
  store ptr %29, ptr %30, align 8, !tbaa !5
  %31 = load ptr, ptr %7, align 8, !tbaa !63
  %32 = load ptr, ptr %31, align 8, !tbaa !5
  %33 = call i64 @sdslen(ptr noundef %32)
  %34 = load ptr, ptr %8, align 8, !tbaa !64
  store i64 %33, ptr %34, align 8, !tbaa !10
  %35 = load ptr, ptr %9, align 8, !tbaa !64
  store i64 -123456789, ptr %35, align 8, !tbaa !10
  store i32 0, ptr %11, align 4
  br label %36

36:                                               ; preds = %27, %26
  call void @llvm.lifetime.end.p0(i64 8, ptr %10) #10
  %37 = load i32, ptr %11, align 4
  switch i32 %37, label %110 [
    i32 0, label %38
    i32 1, label %108
  ]

38:                                               ; preds = %36
  br label %104

39:                                               ; preds = %4
  %40 = load ptr, ptr %6, align 8, !tbaa !47
  %41 = getelementptr inbounds nuw %struct.setTypeIterator, ptr %40, i32 0, i32 1
  %42 = load i32, ptr %41, align 8, !tbaa !59
  %43 = icmp eq i32 %42, 6
  br i1 %43, label %44, label %60

44:                                               ; preds = %39
  %45 = load ptr, ptr %6, align 8, !tbaa !47
  %46 = getelementptr inbounds nuw %struct.setTypeIterator, ptr %45, i32 0, i32 0
  %47 = load ptr, ptr %46, align 8, !tbaa !56
  %48 = getelementptr inbounds nuw %struct.redisObject, ptr %47, i32 0, i32 2
  %49 = load ptr, ptr %48, align 8, !tbaa !43
  %50 = load ptr, ptr %6, align 8, !tbaa !47
  %51 = getelementptr inbounds nuw %struct.setTypeIterator, ptr %50, i32 0, i32 2
  %52 = load i32, ptr %51, align 4, !tbaa !61
  %53 = add nsw i32 %52, 1
  store i32 %53, ptr %51, align 4, !tbaa !61
  %54 = load ptr, ptr %9, align 8, !tbaa !64
  %55 = call zeroext i8 @intsetGet(ptr noundef %49, i32 noundef %52, ptr noundef %54)
  %56 = icmp ne i8 %55, 0
  br i1 %56, label %58, label %57

57:                                               ; preds = %44
  store i32 -1, ptr %5, align 4
  br label %108

58:                                               ; preds = %44
  %59 = load ptr, ptr %7, align 8, !tbaa !63
  store ptr null, ptr %59, align 8, !tbaa !5
  br label %103

60:                                               ; preds = %39
  %61 = load ptr, ptr %6, align 8, !tbaa !47
  %62 = getelementptr inbounds nuw %struct.setTypeIterator, ptr %61, i32 0, i32 1
  %63 = load i32, ptr %62, align 8, !tbaa !59
  %64 = icmp eq i32 %63, 11
  br i1 %64, label %65, label %101

65:                                               ; preds = %60
  call void @llvm.lifetime.start.p0(i64 8, ptr %12) #10
  %66 = load ptr, ptr %6, align 8, !tbaa !47
  %67 = getelementptr inbounds nuw %struct.setTypeIterator, ptr %66, i32 0, i32 0
  %68 = load ptr, ptr %67, align 8, !tbaa !56
  %69 = getelementptr inbounds nuw %struct.redisObject, ptr %68, i32 0, i32 2
  %70 = load ptr, ptr %69, align 8, !tbaa !43
  store ptr %70, ptr %12, align 8, !tbaa !5
  call void @llvm.lifetime.start.p0(i64 8, ptr %13) #10
  %71 = load ptr, ptr %6, align 8, !tbaa !47
  %72 = getelementptr inbounds nuw %struct.setTypeIterator, ptr %71, i32 0, i32 4
  %73 = load ptr, ptr %72, align 8, !tbaa !62
  store ptr %73, ptr %13, align 8, !tbaa !5
  %74 = load ptr, ptr %13, align 8, !tbaa !5
  %75 = icmp eq ptr %74, null
  br i1 %75, label %76, label %79

76:                                               ; preds = %65
  %77 = load ptr, ptr %12, align 8, !tbaa !5
  %78 = call ptr @lpFirst(ptr noundef %77)
  store ptr %78, ptr %13, align 8, !tbaa !5
  br label %83

79:                                               ; preds = %65
  %80 = load ptr, ptr %12, align 8, !tbaa !5
  %81 = load ptr, ptr %13, align 8, !tbaa !5
  %82 = call ptr @lpNext(ptr noundef %80, ptr noundef %81)
  store ptr %82, ptr %13, align 8, !tbaa !5
  br label %83

83:                                               ; preds = %79, %76
  %84 = load ptr, ptr %13, align 8, !tbaa !5
  %85 = icmp eq ptr %84, null
  br i1 %85, label %86, label %87

86:                                               ; preds = %83
  store i32 -1, ptr %5, align 4
  store i32 1, ptr %11, align 4
  br label %98

87:                                               ; preds = %83
  %88 = load ptr, ptr %13, align 8, !tbaa !5
  %89 = load ptr, ptr %6, align 8, !tbaa !47
  %90 = getelementptr inbounds nuw %struct.setTypeIterator, ptr %89, i32 0, i32 4
  store ptr %88, ptr %90, align 8, !tbaa !62
  call void @llvm.lifetime.start.p0(i64 4, ptr %14) #10
  %91 = load ptr, ptr %13, align 8, !tbaa !5
  %92 = load ptr, ptr %9, align 8, !tbaa !64
  %93 = call ptr @lpGetValue(ptr noundef %91, ptr noundef %14, ptr noundef %92)
  %94 = load ptr, ptr %7, align 8, !tbaa !63
  store ptr %93, ptr %94, align 8, !tbaa !5
  %95 = load i32, ptr %14, align 4, !tbaa !45
  %96 = zext i32 %95 to i64
  %97 = load ptr, ptr %8, align 8, !tbaa !64
  store i64 %96, ptr %97, align 8, !tbaa !10
  call void @llvm.lifetime.end.p0(i64 4, ptr %14) #10
  store i32 0, ptr %11, align 4
  br label %98

98:                                               ; preds = %87, %86
  call void @llvm.lifetime.end.p0(i64 8, ptr %13) #10
  call void @llvm.lifetime.end.p0(i64 8, ptr %12) #10
  %99 = load i32, ptr %11, align 4
  switch i32 %99, label %110 [
    i32 0, label %100
    i32 1, label %108
  ]

100:                                              ; preds = %98
  br label %102

101:                                              ; preds = %60
  call void (ptr, i32, ptr, ...) @_serverPanic(ptr noundef @.str.1, i32 noundef 377, ptr noundef @.str.4)
  call void @abort() #11
  unreachable

102:                                              ; preds = %100
  br label %103

103:                                              ; preds = %102, %58
  br label %104

104:                                              ; preds = %103, %38
  %105 = load ptr, ptr %6, align 8, !tbaa !47
  %106 = getelementptr inbounds nuw %struct.setTypeIterator, ptr %105, i32 0, i32 1
  %107 = load i32, ptr %106, align 8, !tbaa !59
  store i32 %107, ptr %5, align 4
  br label %108

108:                                              ; preds = %104, %98, %57, %36
  %109 = load i32, ptr %5, align 4
  ret i32 %109

110:                                              ; preds = %98, %36
  unreachable
}