; Function Attrs: nounwind uwtable
define dso_local i32 @setTypeNext(ptr noundef captures(none) %0, ptr noundef writeonly captures(none) %1, ptr noundef writeonly captures(none) %2, ptr noundef %3) local_unnamed_addr #0 {
  %5 = alloca i32, align 4
  %6 = getelementptr inbounds nuw i8, ptr %0, i64 8
  %7 = load i32, ptr %6, align 8, !tbaa !45
  switch i32 %7, label %62 [
    i32 2, label %8
    i32 6, label %37
    i32 11, label %46
  ]

8:                                                ; preds = %4
  %9 = getelementptr inbounds nuw i8, ptr %0, i64 16
  %10 = load ptr, ptr %9, align 8, !tbaa !46
  %11 = tail call ptr @dictNext(ptr noundef %10) #10
  %12 = icmp eq ptr %11, null
  br i1 %12, label %65, label %13

13:                                               ; preds = %8
  %14 = tail call ptr @dictGetKey(ptr noundef nonnull %11) #10
  store ptr %14, ptr %1, align 8, !tbaa !49
  %15 = getelementptr inbounds i8, ptr %14, i64 -1
  %16 = load i8, ptr %15, align 1, !tbaa !54
  %17 = zext i8 %16 to i32
  %18 = and i32 %17, 7
  switch i32 %18, label %.thread [
    i32 0, label %19
    i32 1, label %22
    i32 2, label %26
    i32 3, label %30
    i32 4, label %34
  ]

19:                                               ; preds = %13
  %20 = lshr i32 %17, 3
  %21 = zext nneg i32 %20 to i64
  br label %.thread

22:                                               ; preds = %13
  %23 = getelementptr inbounds i8, ptr %14, i64 -3
  %24 = load i8, ptr %23, align 1, !tbaa !54
  %25 = zext i8 %24 to i64
  br label %.thread

26:                                               ; preds = %13
  %27 = getelementptr inbounds i8, ptr %14, i64 -5
  %28 = load i16, ptr %27, align 1, !tbaa !55
  %29 = zext i16 %28 to i64
  br label %.thread

30:                                               ; preds = %13
  %31 = getelementptr inbounds i8, ptr %14, i64 -9
  %32 = load i32, ptr %31, align 1, !tbaa !57
  %33 = zext i32 %32 to i64
  br label %.thread

34:                                               ; preds = %13
  %35 = getelementptr inbounds i8, ptr %14, i64 -17
  %36 = load i64, ptr %35, align 1, !tbaa !50
  br label %.thread

.thread:                                          ; preds = %34, %30, %26, %22, %19, %13
  %.0.i = phi i64 [ %36, %34 ], [ %33, %30 ], [ %29, %26 ], [ %25, %22 ], [ %21, %19 ], [ 0, %13 ]
  store i64 %.0.i, ptr %2, align 8, !tbaa !50
  store i64 -123456789, ptr %3, align 8, !tbaa !50
  br label %63

37:                                               ; preds = %4
  %38 = load ptr, ptr %0, align 8, !tbaa !41
  %39 = getelementptr inbounds nuw i8, ptr %38, i64 8
  %40 = load ptr, ptr %39, align 8, !tbaa !38
  %41 = getelementptr inbounds nuw i8, ptr %0, i64 12
  %42 = load i32, ptr %41, align 4, !tbaa !47
  %43 = add nsw i32 %42, 1
  store i32 %43, ptr %41, align 4, !tbaa !47
  %44 = tail call zeroext i8 @intsetGet(ptr noundef %40, i32 noundef %42, ptr noundef %3) #10
  %.not = icmp eq i8 %44, 0
  br i1 %.not, label %65, label %45

45:                                               ; preds = %37
  store ptr null, ptr %1, align 8, !tbaa !49
  br label %63

46:                                               ; preds = %4
  %47 = load ptr, ptr %0, align 8, !tbaa !41
  %48 = getelementptr inbounds nuw i8, ptr %47, i64 8
  %49 = load ptr, ptr %48, align 8, !tbaa !38
  %50 = getelementptr inbounds nuw i8, ptr %0, i64 24
  %51 = load ptr, ptr %50, align 8, !tbaa !48
  %52 = icmp eq ptr %51, null
  br i1 %52, label %53, label %55

53:                                               ; preds = %46
  %54 = tail call ptr @lpFirst(ptr noundef %49) #10
  br label %57

55:                                               ; preds = %46
  %56 = tail call ptr @lpNext(ptr noundef %49, ptr noundef nonnull %51) #10
  br label %57

57:                                               ; preds = %55, %53
  %.0 = phi ptr [ %54, %53 ], [ %56, %55 ]
  %58 = icmp eq ptr %.0, null
  br i1 %58, label %65, label %.thread39

.thread39:                                        ; preds = %57
  store ptr %.0, ptr %50, align 8, !tbaa !48
  call void @llvm.lifetime.start.p0(i64 4, ptr nonnull %5) #10
  %59 = call ptr @lpGetValue(ptr noundef nonnull %.0, ptr noundef nonnull %5, ptr noundef %3) #10
  store ptr %59, ptr %1, align 8, !tbaa !49
  %60 = load i32, ptr %5, align 4, !tbaa !57
  %61 = zext i32 %60 to i64
  store i64 %61, ptr %2, align 8, !tbaa !50
  call void @llvm.lifetime.end.p0(i64 4, ptr nonnull %5) #10
  br label %63

62:                                               ; preds = %4
  tail call void (ptr, i32, ptr, ...) @_serverPanic(ptr noundef nonnull @.str.1, i32 noundef 377, ptr noundef nonnull @.str.4) #10
  tail call void @abort() #11
  unreachable

63:                                               ; preds = %.thread39, %.thread, %45
  %64 = load i32, ptr %6, align 8, !tbaa !45
  br label %65

65:                                               ; preds = %57, %8, %37, %63
  %.1 = phi i32 [ %64, %63 ], [ -1, %37 ], [ -1, %8 ], [ -1, %57 ]
  ret i32 %.1
}